target datalayout = "e-m:e-p270:32:32-p271:32:32-p272:64:64-i64:64-i128:128-f80:128-n8:16:32:64-S128"
target triple = "x86_64-pc-linux-gnu"

%struct.__va_list_tag = type { i32, i32, ptr, ptr }

@stderr = external global ptr, align 8

; Function Attrs: alwaysinline
define internal i32 @vfprintf.inline(ptr noalias %0, ptr noalias %1, ptr %2) #14 {
  %4 = alloca ptr, align 8
  %5 = alloca ptr, align 8
  %6 = alloca ptr, align 8
  store ptr %0, ptr %4, align 8
  store ptr %1, ptr %5, align 8
  store ptr %2, ptr %6, align 8
  %7 = load ptr, ptr %4, align 8
  %8 = load ptr, ptr %5, align 8
  %9 = load ptr, ptr %6, align 8
  %10 = call i32 @__vfprintf_chk(ptr noundef %7, i32 noundef 2, ptr noundef %8, ptr noundef %9)
  ret i32 %10
}

; Function Attrs: null_pointer_is_valid sspstrong uwtable
define internal void @print_err(ptr noundef %0, i32 noundef %1, ptr noundef %2, ...) #1 {
  %4 = alloca ptr, align 8
  %5 = alloca i32, align 4
  %6 = alloca ptr, align 8
  %7 = alloca [1 x %struct.__va_list_tag], align 16
  store ptr %0, ptr %4, align 8
  store i32 %1, ptr %5, align 4
  store ptr %2, ptr %6, align 8
  call void @llvm.lifetime.start.p0(i64 24, ptr %7) #19
  %8 = getelementptr inbounds [1 x %struct.__va_list_tag], ptr %7, i64 0, i64 0
  call void @llvm.va_start.p0(ptr %8)
  %9 = load ptr, ptr %4, align 8
  %10 = icmp ne ptr %9, null
  br i1 %10, label %11, label %15

11:                                               ; preds = %3
  %12 = load ptr, ptr %4, align 8
  %13 = load ptr, ptr %6, align 8
  %14 = getelementptr inbounds [1 x %struct.__va_list_tag], ptr %7, i64 0, i64 0
  call void %12(ptr noundef %13, ptr noundef %14)
  br label %20

15:                                               ; preds = %3
  %16 = load ptr, ptr @stderr, align 8
  %17 = load ptr, ptr %6, align 8
  %18 = getelementptr inbounds [1 x %struct.__va_list_tag], ptr %7, i64 0, i64 0
  %19 = call i32 @vfprintf.inline(ptr noundef %16, ptr noundef %17, ptr noundef %18) #19
  br label %20

20:                                               ; preds = %15, %11
  %21 = getelementptr inbounds [1 x %struct.__va_list_tag], ptr %7, i64 0, i64 0
  call void @llvm.va_end.p0(ptr %21)
  %22 = load i32, ptr %5, align 4
  %23 = icmp ne i32 %22, -1
  br i1 %23, label %24, label %26

24:                                               ; preds = %20
  %25 = load i32, ptr %5, align 4
  call void @exit(i32 noundef %25) #22
  unreachable

26:                                               ; preds = %20
  call void @llvm.lifetime.end.p0(i64 24, ptr %7) #19
  ret void
}