; Function Attrs: null_pointer_is_valid sspstrong uwtable
define internal void @print_err(ptr noundef readonly captures(address_is_null) %0, i32 noundef %1, ptr noundef %2, ...) unnamed_addr #1 {
  %4 = alloca [1 x %struct.__va_list_tag], align 16
  call void @llvm.lifetime.start.p0(i64 24, ptr nonnull %4) #23
  call void @llvm.va_start.p0(ptr nonnull %4)
  %.not = icmp eq ptr %0, null
  br i1 %.not, label %6, label %5

5:                                                ; preds = %3
  call void %0(ptr noundef %2, ptr noundef nonnull %4)
  br label %9

6:                                                ; preds = %3
  %7 = load ptr, ptr @stderr, align 8
  %8 = call i32 @__vfprintf_chk(ptr noundef %7, i32 noundef 2, ptr noundef %2, ptr noundef nonnull %4) #23
  br label %9

9:                                                ; preds = %6, %5
  call void @llvm.va_end.p0(ptr nonnull %4)
  %.not6 = icmp eq i32 %1, -1
  br i1 %.not6, label %11, label %10

10:                                               ; preds = %9
  call void @exit(i32 noundef %1) #24
  unreachable

11:                                               ; preds = %9
  call void @llvm.lifetime.end.p0(i64 24, ptr nonnull %4) #23
  ret void
}